; Function Attrs: mustprogress uwtable
define dso_local void @_ZN4Json9OurReader17skipCommentTokensERNS0_5TokenE(ptr noundef nonnull align 8 dereferenceable(297) %0, ptr nocapture noundef nonnull align 8 dereferenceable(24) %1) local_unnamed_addr #6 align 2 {
  %3 = getelementptr inbounds i8, ptr %0, i64 272
  %4 = load i8, ptr %3, align 8
  %5 = and i8 %4, 1
  %.not = icmp eq i8 %5, 0
  br i1 %.not, label %9, label %.preheader

.preheader:                                       ; preds = %2, %.preheader
  %6 = tail call noundef zeroext i1 @_ZN4Json9OurReader9readTokenERNS0_5TokenE(ptr noundef nonnull align 8 dereferenceable(297) %0, ptr noundef nonnull align 8 dereferenceable(24) %1)
  %7 = load i32, ptr %1, align 8
  %8 = icmp eq i32 %7, 15
  br i1 %8, label %.preheader, label %.loopexit, !llvm.loop !163

9:                                                ; preds = %2
  %10 = tail call noundef zeroext i1 @_ZN4Json9OurReader9readTokenERNS0_5TokenE(ptr noundef nonnull align 8 dereferenceable(297) %0, ptr noundef nonnull align 8 dereferenceable(24) %1)
  br label %.loopexit

.loopexit:                                        ; preds = %.preheader, %9
  ret void
}